target datalayout = "e-m:e-p270:32:32-p271:32:32-p272:64:64-i64:64-f80:128-n8:16:32:64-S128"
target triple = "x86_64-pc-linux-gnu"

%struct.book = type { i32, [26 x i8] }

@.str = private unnamed_addr constant [3 x i8] c"%d\00", align 1
@.str.1 = private unnamed_addr constant [6 x i8] c"%d %s\00", align 1
@b = common dso_local global [999 x %struct.book] zeroinitializer, align 16
@.str.2 = private unnamed_addr constant [6 x i8] c"%c\0A%d\00", align 1
@.str.3 = private unnamed_addr constant [4 x i8] c"\0A%d\00", align 1

; Function Attrs: noinline nounwind uwtable
define dso_local void @main() #0 {
  %1 = alloca i32, align 4
  %2 = alloca i32, align 4
  %3 = alloca i32, align 4
  %4 = alloca i32, align 4
  %5 = alloca i32, align 4
  %6 = alloca i32, align 4
  %7 = alloca i32, align 4
  %8 = alloca [26 x i32], align 16
  %9 = alloca [999 x i32], align 16
  %10 = bitcast [26 x i32]* %8 to i8*
  call void @llvm.memset.p0i8.i64(i8* align 16 %10, i8 0, i64 104, i1 false)
  %11 = bitcast [999 x i32]* %9 to i8*
  call void @llvm.memset.p0i8.i64(i8* align 16 %11, i8 0, i64 3996, i1 false)
  %12 = call i32 (i8*, ...) @__isoc99_scanf(i8* getelementptr inbounds ([3 x i8], [3 x i8]* @.str, i64 0, i64 0), i32* %3)
  store i32 0, i32* %1, align 4
  br label %13

13:                                               ; preds = %28, %0
  %14 = load i32, i32* %1, align 4
  %15 = load i32, i32* %3, align 4
  %16 = icmp slt i32 %14, %15
  br i1 %16, label %17, label %31

17:                                               ; preds = %13
  %18 = load i32, i32* %1, align 4
  %19 = sext i32 %18 to i64
  %20 = getelementptr inbounds [999 x %struct.book], [999 x %struct.book]* @b, i64 0, i64 %19
  %21 = getelementptr inbounds %struct.book, %struct.book* %20, i32 0, i32 0
  %22 = load i32, i32* %1, align 4
  %23 = sext i32 %22 to i64
  %24 = getelementptr inbounds [999 x %struct.book], [999 x %struct.book]* @b, i64 0, i64 %23
  %25 = getelementptr inbounds %struct.book, %struct.book* %24, i32 0, i32 1
  %26 = getelementptr inbounds [26 x i8], [26 x i8]* %25, i64 0, i64 0
  %27 = call i32 (i8*, ...) @__isoc99_scanf(i8* getelementptr inbounds ([6 x i8], [6 x i8]* @.str.1, i64 0, i64 0), i32* %21, i8* %26)
  br label %28

28:                                               ; preds = %17
  %29 = load i32, i32* %1, align 4
  %30 = add nsw i32 %29, 1
  store i32 %30, i32* %1, align 4
  br label %13

31:                                               ; preds = %13
  store i32 0, i32* %1, align 4
  br label %32

32:                                               ; preds = %68, %31
  %33 = load i32, i32* %1, align 4
  %34 = load i32, i32* %3, align 4
  %35 = icmp slt i32 %33, %34
  br i1 %35, label %36, label %71

36:                                               ; preds = %32
  %37 = load i32, i32* %1, align 4
  %38 = sext i32 %37 to i64
  %39 = getelementptr inbounds [999 x %struct.book], [999 x %struct.book]* @b, i64 0, i64 %38
  %40 = getelementptr inbounds %struct.book, %struct.book* %39, i32 0, i32 1
  %41 = getelementptr inbounds [26 x i8], [26 x i8]* %40, i64 0, i64 0
  %42 = call i64 @strlen(i8* %41) #4
  %43 = trunc i64 %42 to i32
  store i32 %43, i32* %4, align 4
  store i32 0, i32* %2, align 4
  br label %44

44:                                               ; preds = %64, %36
  %45 = load i32, i32* %2, align 4
  %46 = load i32, i32* %4, align 4
  %47 = icmp slt i32 %45, %46
  br i1 %47, label %48, label %67

48:                                               ; preds = %44
  %49 = load i32, i32* %1, align 4
  %50 = sext i32 %49 to i64
  %51 = getelementptr inbounds [999 x %struct.book], [999 x %struct.book]* @b, i64 0, i64 %50
  %52 = getelementptr inbounds %struct.book, %struct.book* %51, i32 0, i32 1
  %53 = load i32, i32* %2, align 4
  %54 = sext i32 %53 to i64
  %55 = getelementptr inbounds [26 x i8], [26 x i8]* %52, i64 0, i64 %54
  %56 = load i8, i8* %55, align 1
  %57 = sext i8 %56 to i32
  store i32 %57, i32* %5, align 4
  %58 = load i32, i32* %5, align 4
  %59 = sub nsw i32 %58, 65
  %60 = sext i32 %59 to i64
  %61 = getelementptr inbounds [26 x i32], [26 x i32]* %8, i64 0, i64 %60
  %62 = load i32, i32* %61, align 4
  %63 = add nsw i32 %62, 1
  store i32 %63, i32* %61, align 4
  br label %64

64:                                               ; preds = %48
  %65 = load i32, i32* %2, align 4
  %66 = add nsw i32 %65, 1
  store i32 %66, i32* %2, align 4
  br label %44

67:                                               ; preds = %44
  br label %68

68:                                               ; preds = %67
  %69 = load i32, i32* %1, align 4
  %70 = add nsw i32 %69, 1
  store i32 %70, i32* %1, align 4
  br label %32

71:                                               ; preds = %32
  store i32 1, i32* %1, align 4
  %72 = getelementptr inbounds [26 x i32], [26 x i32]* %8, i64 0, i64 0
  %73 = load i32, i32* %72, align 16
  store i32 %73, i32* %6, align 4
  store i32 0, i32* %7, align 4
  br label %74

74:                                               ; preds = %91, %71
  %75 = load i32, i32* %1, align 4
  %76 = icmp slt i32 %75, 26
  br i1 %76, label %77, label %94

77:                                               ; preds = %74
  %78 = load i32, i32* %1, align 4
  %79 = sext i32 %78 to i64
  %80 = getelementptr inbounds [26 x i32], [26 x i32]* %8, i64 0, i64 %79
  %81 = load i32, i32* %80, align 4
  %82 = load i32, i32* %6, align 4
  %83 = icmp sgt i32 %81, %82
  br i1 %83, label %84, label %90

84:                                               ; preds = %77
  %85 = load i32, i32* %1, align 4
  store i32 %85, i32* %7, align 4
  %86 = load i32, i32* %1, align 4
  %87 = sext i32 %86 to i64
  %88 = getelementptr inbounds [26 x i32], [26 x i32]* %8, i64 0, i64 %87
  %89 = load i32, i32* %88, align 4
  store i32 %89, i32* %6, align 4
  br label %90

90:                                               ; preds = %84, %77
  br label %91

91:                                               ; preds = %90
  %92 = load i32, i32* %1, align 4
  %93 = add nsw i32 %92, 1
  store i32 %93, i32* %1, align 4
  br label %74

94:                                               ; preds = %74
  %95 = load i32, i32* %7, align 4
  %96 = add nsw i32 %95, 65
  %97 = load i32, i32* %6, align 4
  %98 = call i32 (i8*, ...) @printf(i8* getelementptr inbounds ([6 x i8], [6 x i8]* @.str.2, i64 0, i64 0), i32 %96, i32 %97)
  store i32 0, i32* %1, align 4
  br label %99

99:                                               ; preds = %137, %94
  %100 = load i32, i32* %1, align 4
  %101 = load i32, i32* %3, align 4
  %102 = icmp slt i32 %100, %101
  br i1 %102, label %103, label %140

103:                                              ; preds = %99
  %104 = load i32, i32* %1, align 4
  %105 = sext i32 %104 to i64
  %106 = getelementptr inbounds [999 x %struct.book], [999 x %struct.book]* @b, i64 0, i64 %105
  %107 = getelementptr inbounds %struct.book, %struct.book* %106, i32 0, i32 1
  %108 = getelementptr inbounds [26 x i8], [26 x i8]* %107, i64 0, i64 0
  %109 = call i64 @strlen(i8* %108) #4
  %110 = trunc i64 %109 to i32
  store i32 %110, i32* %4, align 4
  store i32 0, i32* %2, align 4
  br label %111

111:                                              ; preds = %133, %103
  %112 = load i32, i32* %2, align 4
  %113 = load i32, i32* %4, align 4
  %114 = icmp slt i32 %112, %113
  br i1 %114, label %115, label %136

115:                                              ; preds = %111
  %116 = load i32, i32* %1, align 4
  %117 = sext i32 %116 to i64
  %118 = getelementptr inbounds [999 x %struct.book], [999 x %struct.book]* @b, i64 0, i64 %117
  %119 = getelementptr inbounds %struct.book, %struct.book* %118, i32 0, i32 1
  %120 = load i32, i32* %2, align 4
  %121 = sext i32 %120 to i64
  %122 = getelementptr inbounds [26 x i8], [26 x i8]* %119, i64 0, i64 %121
  %123 = load i8, i8* %122, align 1
  %124 = sext i8 %123 to i32
  %125 = load i32, i32* %7, align 4
  %126 = add nsw i32 %125, 65
  %127 = icmp eq i32 %124, %126
  br i1 %127, label %128, label %132

128:                                              ; preds = %115
  %129 = load i32, i32* %1, align 4
  %130 = sext i32 %129 to i64
  %131 = getelementptr inbounds [999 x i32], [999 x i32]* %9, i64 0, i64 %130
  store i32 1, i32* %131, align 4
  br label %132

132:                                              ; preds = %128, %115
  br label %133

133:                                              ; preds = %132
  %134 = load i32, i32* %2, align 4
  %135 = add nsw i32 %134, 1
  store i32 %135, i32* %2, align 4
  br label %111

136:                                              ; preds = %111
  br label %137

137:                                              ; preds = %136
  %138 = load i32, i32* %1, align 4
  %139 = add nsw i32 %138, 1
  store i32 %139, i32* %1, align 4
  br label %99

140:                                              ; preds = %99
  store i32 0, i32* %1, align 4
  br label %141

141:                                              ; preds = %159, %140
  %142 = load i32, i32* %1, align 4
  %143 = load i32, i32* %3, align 4
  %144 = icmp slt i32 %142, %143
  br i1 %144, label %145, label %162

145:                                              ; preds = %141
  %146 = load i32, i32* %1, align 4
  %147 = sext i32 %146 to i64
  %148 = getelementptr inbounds [999 x i32], [999 x i32]* %9, i64 0, i64 %147
  %149 = load i32, i32* %148, align 4
  %150 = icmp eq i32 %149, 1
  br i1 %150, label %151, label %158

151:                                              ; preds = %145
  %152 = load i32, i32* %1, align 4
  %153 = sext i32 %152 to i64
  %154 = getelementptr inbounds [999 x %struct.book], [999 x %struct.book]* @b, i64 0, i64 %153
  %155 = getelementptr inbounds %struct.book, %struct.book* %154, i32 0, i32 0
  %156 = load i32, i32* %155, align 16
  %157 = call i32 (i8*, ...) @printf(i8* getelementptr inbounds ([4 x i8], [4 x i8]* @.str.3, i64 0, i64 0), i32 %156)
  br label %158

158:                                              ; preds = %151, %145
  br label %159

159:                                              ; preds = %158
  %160 = load i32, i32* %1, align 4
  %161 = add nsw i32 %160, 1
  store i32 %161, i32* %1, align 4
  br label %141

162:                                              ; preds = %141
  ret void
}